; Function Attrs: nounwind uwtable
define ptr @l_Array_foldlMUnsafe_fold___at_Lean_Compiler_LCNF_Probe_sum___spec__1(ptr noundef readonly captures(none) %0, i64 noundef %1, i64 noundef %2, ptr noundef %3) local_unnamed_addr #0 {
  %.not46 = icmp eq i64 %1, %2
  br i1 %.not46, label %._crit_edge, label %.lr.ph

.lr.ph:                                           ; preds = %4
  %5 = getelementptr inbounds nuw i8, ptr %0, i64 24
  br label %6

6:                                                ; preds = %.lr.ph, %lean_dec.exit20.thread32
  %.01648 = phi i64 [ %1, %.lr.ph ], [ %45, %lean_dec.exit20.thread32 ]
  %.01847 = phi ptr [ %3, %.lr.ph ], [ %.0.i2631, %lean_dec.exit20.thread32 ]
  %7 = getelementptr inbounds nuw [0 x ptr], ptr %5, i64 0, i64 %.01648
  %8 = load ptr, ptr %7, align 8, !tbaa !10
  %9 = ptrtoint ptr %8 to i64
  %10 = and i64 %9, 1
  %.not.i23 = icmp eq i64 %10, 0
  br i1 %.not.i23, label %11, label %lean_array_uget.exit.thread

11:                                               ; preds = %6
  %.val.i.i = load i32, ptr %8, align 4, !tbaa !4
  %12 = icmp sgt i32 %.val.i.i, 0
  br i1 %12, label %13, label %15, !prof !9

13:                                               ; preds = %11
  %14 = add nuw i32 %.val.i.i, 1
  store i32 %14, ptr %8, align 4, !tbaa !4
  br label %lean_array_uget.exit

15:                                               ; preds = %11
  %.not.i.i = icmp eq i32 %.val.i.i, 0
  br i1 %.not.i.i, label %lean_array_uget.exit, label %16

16:                                               ; preds = %15
  tail call void @lean_inc_ref_cold(ptr noundef nonnull %8) #4
  br label %lean_array_uget.exit

lean_array_uget.exit:                             ; preds = %13, %15, %16
  %17 = ptrtoint ptr %.01847 to i64
  %18 = and i64 %17, 1
  %.not43.not = icmp eq i64 %18, 0
  %19 = tail call ptr @lean_nat_big_add(ptr noundef %.01847, ptr noundef nonnull %8) #4
  %20 = load i32, ptr %8, align 4, !tbaa !4
  %21 = icmp sgt i32 %20, 1
  br i1 %21, label %35, label %37, !prof !9

lean_array_uget.exit.thread:                      ; preds = %6
  %22 = ptrtoint ptr %.01847 to i64
  %23 = and i64 %22, 1
  %.not42 = icmp eq i64 %23, 0
  br i1 %.not42, label %lean_nat_add.exit.thread27, label %.thread, !prof !17

lean_nat_add.exit.thread27:                       ; preds = %lean_array_uget.exit.thread
  %24 = tail call ptr @lean_nat_big_add(ptr noundef %.01847, ptr noundef %8) #4
  br label %lean_dec.exit20.thread

.thread:                                          ; preds = %lean_array_uget.exit.thread
  %25 = lshr i64 %22, 1
  %26 = lshr i64 %9, 1
  %27 = add nuw i64 %26, %25
  %28 = icmp sgt i64 %27, -1
  br i1 %28, label %29, label %33, !prof !9

29:                                               ; preds = %.thread
  %30 = shl nuw i64 %27, 1
  %31 = or disjoint i64 %30, 1
  %32 = inttoptr i64 %31 to ptr
  br label %lean_dec.exit20.thread32

33:                                               ; preds = %.thread
  %34 = tail call ptr @lean_big_usize_to_nat(i64 noundef range(i64 0, -1) %27) #4
  br label %lean_dec.exit20.thread32

35:                                               ; preds = %lean_array_uget.exit
  %36 = add nsw i32 %20, -1
  store i32 %36, ptr %8, align 4, !tbaa !4
  br i1 %.not43.not, label %lean_dec.exit20.thread, label %lean_dec.exit20.thread32

37:                                               ; preds = %lean_array_uget.exit
  %.not.i = icmp eq i32 %20, 0
  br i1 %.not.i, label %lean_dec.exit20, label %38

38:                                               ; preds = %37
  tail call void @lean_dec_ref_cold(ptr noundef nonnull %8) #4
  br i1 %.not43.not, label %lean_dec.exit20.thread, label %lean_dec.exit20.thread32

lean_dec.exit20:                                  ; preds = %37
  br i1 %.not43.not, label %lean_dec.exit20.thread, label %lean_dec.exit20.thread32

lean_dec.exit20.thread:                           ; preds = %lean_nat_add.exit.thread27, %38, %35, %lean_dec.exit20
  %.0.i2630 = phi ptr [ %19, %lean_dec.exit20 ], [ %19, %35 ], [ %19, %38 ], [ %24, %lean_nat_add.exit.thread27 ]
  %39 = load i32, ptr %.01847, align 4, !tbaa !4
  %40 = icmp sgt i32 %39, 1
  br i1 %40, label %41, label %43, !prof !9

41:                                               ; preds = %lean_dec.exit20.thread
  %42 = add nsw i32 %39, -1
  store i32 %42, ptr %.01847, align 4, !tbaa !4
  br label %lean_dec.exit20.thread32

43:                                               ; preds = %lean_dec.exit20.thread
  %.not.i21 = icmp eq i32 %39, 0
  br i1 %.not.i21, label %lean_dec.exit20.thread32, label %44

44:                                               ; preds = %43
  tail call void @lean_dec_ref_cold(ptr noundef nonnull %.01847) #4
  br label %lean_dec.exit20.thread32

lean_dec.exit20.thread32:                         ; preds = %33, %29, %lean_dec.exit20, %35, %38, %41, %43, %44
  %.0.i2631 = phi ptr [ %19, %lean_dec.exit20 ], [ %19, %35 ], [ %19, %38 ], [ %.0.i2630, %41 ], [ %.0.i2630, %43 ], [ %.0.i2630, %44 ], [ %34, %33 ], [ %32, %29 ]
  %45 = add i64 %.01648, 1
  %.not = icmp eq i64 %45, %2
  br i1 %.not, label %._crit_edge, label %6

._crit_edge:                                      ; preds = %lean_dec.exit20.thread32, %4
  %.018.lcssa = phi ptr [ %3, %4 ], [ %.0.i2631, %lean_dec.exit20.thread32 ]
  ret ptr %.018.lcssa
}